target datalayout = "e-m:e-p270:32:32-p271:32:32-p272:64:64-i64:64-i128:128-f80:128-n8:16:32:64-S128"
target triple = "x86_64-pc-linux-gnu"

%struct._zend_executor_globals = type { %struct._zval_struct, %struct._zval_struct, [32 x ptr], ptr, ptr, %struct._zend_array, %struct._zend_array, ptr, i32, i8, %struct._zval_struct, i32, ptr, ptr, ptr, ptr, ptr, ptr, i64, ptr, ptr, i32, ptr, i32, i64, i32, i32, i32, i8, i8, %struct.zend_atomic_bool_s, %struct.zend_atomic_bool_s, ptr, i64, ptr, ptr, %struct._zend_array, %struct._zend_array, i32, i8, %struct._zval_struct, %struct._zval_struct, %struct._zend_stack, %struct._zend_stack, %struct._zend_stack, ptr, i32, i32, i64, ptr, ptr, ptr, %struct._zend_objects_store, %struct._zend_lazy_objects_store, ptr, ptr, ptr, [3 x %struct._zend_op], ptr, i8, i8, i64, i32, i32, ptr, [16 x %struct._HashTableIterator], ptr, %union._zend_function, %struct._zend_op, %struct._zend_array, i64, %struct.zend_get_gc_buffer, ptr, ptr, ptr, i64, i8, i32, ptr, ptr, i64, %struct._zend_call_stack, i64, i64, %struct._zend_strtod_state, [6 x ptr] }
%struct.zend_atomic_bool_s = type { i8 }
%struct._zval_struct = type { %union._zend_value, %union.anon, %union.anon.2 }
%union._zend_value = type { i64 }
%union.anon = type { i32 }
%union.anon.2 = type { i32 }
%struct._zend_stack = type { i32, i32, i32, ptr }
%struct._zend_objects_store = type { ptr, i32, i32, i32 }
%struct._zend_lazy_objects_store = type { %struct._zend_array }
%struct._HashTableIterator = type { ptr, i32, i32 }
%union._zend_function = type { %struct._zend_op_array }
%struct._zend_op_array = type { i8, [3 x i8], i32, ptr, ptr, ptr, i32, i32, ptr, ptr, ptr, ptr, i32, ptr, i32, i32, i32, ptr, ptr, ptr, ptr, ptr, i32, i32, ptr, ptr, ptr, i32, i32, i32, i32, ptr, ptr, [6 x ptr] }
%struct._zend_op = type { ptr, %union._znode_op, %union._znode_op, %union._znode_op, i32, i32, i8, i8, i8, i8 }
%union._znode_op = type { i32 }
%struct._zend_array = type { %struct._zend_refcounted_h, %union.anon.4, i32, %union.anon.6, i32, i32, i32, i32, i64, ptr }
%struct._zend_refcounted_h = type { i32, %union.anon.3 }
%union.anon.3 = type { i32 }
%union.anon.4 = type { i32 }
%union.anon.6 = type { ptr }
%struct.zend_get_gc_buffer = type { ptr, ptr, ptr }
%struct._zend_call_stack = type { ptr, i64 }
%struct._zend_strtod_state = type { [8 x ptr], ptr, ptr }
%struct._zend_execute_data = type { ptr, ptr, ptr, ptr, %struct._zval_struct, ptr, ptr, ptr, ptr }
%struct._spl_dllist_object = type { ptr, ptr, i32, i32, ptr, ptr, ptr, ptr, ptr, ptr, %struct._zend_object }
%struct._zend_object = type { %struct._zend_refcounted_h, i32, i32, ptr, ptr, ptr, [1 x %struct._zval_struct] }
%struct._spl_ptr_llist = type { ptr, ptr, i32 }
%struct._spl_ptr_llist_element = type { ptr, ptr, %struct._zval_struct }
%struct._zend_refcounted = type { %struct._zend_refcounted_h }
%struct.anon.0 = type { i8, i8, %union.anon.1 }
%union.anon.1 = type { i16 }
%struct._zend_reference = type { %struct._zend_refcounted_h, %struct._zval_struct, %union.zend_property_info_source_list }
%union.zend_property_info_source_list = type { ptr }

@executor_globals = external global %struct._zend_executor_globals, align 8
@spl_ce_RuntimeException = external global ptr, align 8
@.str.3 = private unnamed_addr constant [37 x i8] c"Can't peek at an empty datastructure\00", align 1

; Function Attrs: alwaysinline nounwind uwtable
define internal i32 @zend_gc_addref(ptr noundef %0) #6 {
  %2 = alloca ptr, align 8
  store ptr %0, ptr %2, align 8, !tbaa !77
  br label %3

3:                                                ; preds = %1
  br label %4

4:                                                ; preds = %3
  %5 = load ptr, ptr %2, align 8, !tbaa !77
  %6 = getelementptr inbounds nuw %struct._zend_refcounted_h, ptr %5, i32 0, i32 0
  %7 = load i32, ptr %6, align 4, !tbaa !79
  %8 = add i32 %7, 1
  store i32 %8, ptr %6, align 4, !tbaa !79
  ret i32 %8
}

; Function Attrs: alwaysinline nounwind uwtable
define internal i32 @zval_addref_p(ptr noundef %0) #6 {
  %2 = alloca ptr, align 8
  store ptr %0, ptr %2, align 8, !tbaa !9
  %3 = load ptr, ptr %2, align 8, !tbaa !9
  %4 = getelementptr inbounds nuw %struct._zval_struct, ptr %3, i32 0, i32 1
  %5 = getelementptr inbounds nuw %struct.anon.0, ptr %4, i32 0, i32 1
  %6 = load i8, ptr %5, align 1, !tbaa !11
  %7 = zext i8 %6 to i32
  %8 = icmp ne i32 %7, 0
  call void @llvm.assume(i1 %8)
  %9 = load ptr, ptr %2, align 8, !tbaa !9
  %10 = getelementptr inbounds nuw %struct._zval_struct, ptr %9, i32 0, i32 0
  %11 = load ptr, ptr %10, align 8, !tbaa !11
  %12 = getelementptr inbounds nuw %struct._zend_refcounted, ptr %11, i32 0, i32 0
  %13 = call i32 @zend_gc_addref(ptr noundef %12)
  ret i32 %13
}

; Function Attrs: alwaysinline nounwind uwtable
define internal zeroext i8 @zval_get_type(ptr noundef %0) #6 {
  %2 = alloca ptr, align 8
  store ptr %0, ptr %2, align 8, !tbaa !9
  %3 = load ptr, ptr %2, align 8, !tbaa !9
  %4 = getelementptr inbounds nuw %struct._zval_struct, ptr %3, i32 0, i32 1
  %5 = getelementptr inbounds nuw %struct.anon.0, ptr %4, i32 0, i32 0
  %6 = load i8, ptr %5, align 8, !tbaa !11
  ret i8 %6
}

; Function Attrs: nounwind uwtable
define internal ptr @spl_ptr_llist_last(ptr noundef %0) #0 {
  %2 = alloca ptr, align 8
  %3 = alloca ptr, align 8
  %4 = alloca ptr, align 8
  %5 = alloca i32, align 4
  store ptr %0, ptr %3, align 8, !tbaa !55
  call void @llvm.lifetime.start.p0(i64 8, ptr %4) #14
  %6 = load ptr, ptr %3, align 8, !tbaa !55
  %7 = getelementptr inbounds nuw %struct._spl_ptr_llist, ptr %6, i32 0, i32 1
  %8 = load ptr, ptr %7, align 8, !tbaa !57
  store ptr %8, ptr %4, align 8, !tbaa !56
  %9 = load ptr, ptr %4, align 8, !tbaa !56
  %10 = icmp eq ptr %9, null
  br i1 %10, label %11, label %12

11:                                               ; preds = %1
  store ptr null, ptr %2, align 8
  store i32 1, ptr %5, align 4
  br label %15

12:                                               ; preds = %1
  %13 = load ptr, ptr %4, align 8, !tbaa !56
  %14 = getelementptr inbounds nuw %struct._spl_ptr_llist_element, ptr %13, i32 0, i32 2
  store ptr %14, ptr %2, align 8
  store i32 1, ptr %5, align 4
  br label %15

15:                                               ; preds = %12, %11
  call void @llvm.lifetime.end.p0(i64 8, ptr %4) #14
  %16 = load ptr, ptr %2, align 8
  ret ptr %16
}

; Function Attrs: inlinehint nounwind uwtable
define internal ptr @spl_dllist_from_obj(ptr noundef %0) #4 {
  %2 = alloca ptr, align 8
  store ptr %0, ptr %2, align 8, !tbaa !54
  %3 = load ptr, ptr %2, align 8, !tbaa !54
  %4 = getelementptr inbounds i8, ptr %3, i64 -72
  ret ptr %4
}

; Function Attrs: nounwind uwtable
define hidden void @zim_SplDoublyLinkedList_top(ptr noundef %0, ptr noundef %1) #0 {
  %3 = alloca ptr, align 8
  %4 = alloca ptr, align 8
  %5 = alloca ptr, align 8
  %6 = alloca ptr, align 8
  %7 = alloca i32, align 4
  %8 = alloca ptr, align 8
  %9 = alloca ptr, align 8
  %10 = alloca ptr, align 8
  %11 = alloca ptr, align 8
  %12 = alloca i32, align 4
  store ptr %0, ptr %3, align 8, !tbaa !4
  store ptr %1, ptr %4, align 8, !tbaa !9
  call void @llvm.lifetime.start.p0(i64 8, ptr %5) #14
  call void @llvm.lifetime.start.p0(i64 8, ptr %6) #14
  %13 = load ptr, ptr %3, align 8, !tbaa !4
  %14 = getelementptr inbounds nuw %struct._zend_execute_data, ptr %13, i32 0, i32 4
  %15 = getelementptr inbounds nuw %struct._zval_struct, ptr %14, i32 0, i32 2
  %16 = load i32, ptr %15, align 4, !tbaa !11
  %17 = icmp eq i32 %16, 0
  %18 = xor i1 %17, true
  %19 = xor i1 %18, true
  %20 = zext i1 %19 to i32
  %21 = sext i32 %20 to i64
  %22 = call i64 @llvm.expect.i64(i64 %21, i64 1)
  %23 = icmp ne i64 %22, 0
  br i1 %23, label %24, label %25

24:                                               ; preds = %2
  br label %26

25:                                               ; preds = %2
  call void @zend_wrong_parameters_none_error()
  br label %26

26:                                               ; preds = %25, %24
  %27 = phi i32 [ 0, %24 ], [ -1, %25 ]
  %28 = icmp eq i32 %27, -1
  br i1 %28, label %29, label %35

29:                                               ; preds = %26
  br label %30

30:                                               ; preds = %29
  %31 = load ptr, ptr getelementptr inbounds nuw (%struct._zend_executor_globals, ptr @executor_globals, i32 0, i32 54), align 8, !tbaa !12
  %32 = icmp ne ptr %31, null
  call void @llvm.assume(i1 %32)
  store i32 1, ptr %7, align 4
  br label %124

33:                                               ; No predecessors!
  br label %34

34:                                               ; preds = %33
  br label %35

35:                                               ; preds = %34, %26
  %36 = load ptr, ptr %3, align 8, !tbaa !4
  %37 = getelementptr inbounds nuw %struct._zend_execute_data, ptr %36, i32 0, i32 4
  %38 = getelementptr inbounds nuw %struct._zval_struct, ptr %37, i32 0, i32 0
  %39 = load ptr, ptr %38, align 8, !tbaa !11
  %40 = call ptr @spl_dllist_from_obj(ptr noundef %39)
  store ptr %40, ptr %6, align 8, !tbaa !45
  %41 = load ptr, ptr %6, align 8, !tbaa !45
  %42 = getelementptr inbounds nuw %struct._spl_dllist_object, ptr %41, i32 0, i32 0
  %43 = load ptr, ptr %42, align 8, !tbaa !47
  %44 = call ptr @spl_ptr_llist_last(ptr noundef %43)
  store ptr %44, ptr %5, align 8, !tbaa !9
  %45 = load ptr, ptr %5, align 8, !tbaa !9
  %46 = icmp eq ptr %45, null
  br i1 %46, label %52, label %47

47:                                               ; preds = %35
  %48 = load ptr, ptr %5, align 8, !tbaa !9
  %49 = call zeroext i8 @zval_get_type(ptr noundef %48)
  %50 = zext i8 %49 to i32
  %51 = icmp eq i32 %50, 0
  br i1 %51, label %52, label %60

52:                                               ; preds = %47, %35
  %53 = load ptr, ptr @spl_ce_RuntimeException, align 8, !tbaa !67
  %54 = call ptr @zend_throw_exception(ptr noundef %53, ptr noundef @.str.3, i64 noundef 0)
  br label %55

55:                                               ; preds = %52
  %56 = load ptr, ptr getelementptr inbounds nuw (%struct._zend_executor_globals, ptr @executor_globals, i32 0, i32 54), align 8, !tbaa !12
  %57 = icmp ne ptr %56, null
  call void @llvm.assume(i1 %57)
  store i32 1, ptr %7, align 4
  br label %124

58:                                               ; No predecessors!
  br label %59

59:                                               ; preds = %58
  br label %60

60:                                               ; preds = %59, %47
  br label %61

61:                                               ; preds = %60
  br label %62

62:                                               ; preds = %61
  call void @llvm.lifetime.start.p0(i64 8, ptr %8) #14
  %63 = load ptr, ptr %5, align 8, !tbaa !9
  store ptr %63, ptr %8, align 8, !tbaa !9
  %64 = load ptr, ptr %8, align 8, !tbaa !9
  %65 = getelementptr inbounds nuw %struct._zval_struct, ptr %64, i32 0, i32 1
  %66 = load i32, ptr %65, align 8, !tbaa !11
  %67 = and i32 %66, 65280
  %68 = icmp ne i32 %67, 0
  br i1 %68, label %69, label %99

69:                                               ; preds = %62
  %70 = load ptr, ptr %8, align 8, !tbaa !9
  %71 = getelementptr inbounds nuw %struct._zval_struct, ptr %70, i32 0, i32 1
  %72 = load i32, ptr %71, align 8, !tbaa !11
  %73 = and i32 %72, 255
  %74 = icmp eq i32 %73, 10
  %75 = xor i1 %74, true
  %76 = xor i1 %75, true
  %77 = zext i1 %76 to i32
  %78 = sext i32 %77 to i64
  %79 = call i64 @llvm.expect.i64(i64 %78, i64 0)
  %80 = icmp ne i64 %79, 0
  br i1 %80, label %81, label %95

81:                                               ; preds = %69
  %82 = load ptr, ptr %8, align 8, !tbaa !9
  %83 = getelementptr inbounds nuw %struct._zval_struct, ptr %82, i32 0, i32 0
  %84 = load ptr, ptr %83, align 8, !tbaa !11
  %85 = getelementptr inbounds nuw %struct._zend_reference, ptr %84, i32 0, i32 1
  store ptr %85, ptr %8, align 8, !tbaa !9
  %86 = load ptr, ptr %8, align 8, !tbaa !9
  %87 = getelementptr inbounds nuw %struct._zval_struct, ptr %86, i32 0, i32 1
  %88 = load i32, ptr %87, align 8, !tbaa !11
  %89 = and i32 %88, 65280
  %90 = icmp ne i32 %89, 0
  br i1 %90, label %91, label %94

91:                                               ; preds = %81
  %92 = load ptr, ptr %8, align 8, !tbaa !9
  %93 = call i32 @zval_addref_p(ptr noundef %92)
  br label %94

94:                                               ; preds = %91, %81
  br label %98

95:                                               ; preds = %69
  %96 = load ptr, ptr %8, align 8, !tbaa !9
  %97 = call i32 @zval_addref_p(ptr noundef %96)
  br label %98

98:                                               ; preds = %95, %94
  br label %99

99:                                               ; preds = %98, %62
  br label %100

100:                                              ; preds = %99
  call void @llvm.lifetime.start.p0(i64 8, ptr %9) #14
  %101 = load ptr, ptr %4, align 8, !tbaa !9
  store ptr %101, ptr %9, align 8, !tbaa !9
  call void @llvm.lifetime.start.p0(i64 8, ptr %10) #14
  %102 = load ptr, ptr %8, align 8, !tbaa !9
  store ptr %102, ptr %10, align 8, !tbaa !9
  call void @llvm.lifetime.start.p0(i64 8, ptr %11) #14
  %103 = load ptr, ptr %10, align 8, !tbaa !9
  %104 = getelementptr inbounds nuw %struct._zval_struct, ptr %103, i32 0, i32 0
  %105 = load ptr, ptr %104, align 8, !tbaa !11
  store ptr %105, ptr %11, align 8, !tbaa !62
  call void @llvm.lifetime.start.p0(i64 4, ptr %12) #14
  %106 = load ptr, ptr %10, align 8, !tbaa !9
  %107 = getelementptr inbounds nuw %struct._zval_struct, ptr %106, i32 0, i32 1
  %108 = load i32, ptr %107, align 8, !tbaa !11
  store i32 %108, ptr %12, align 4, !tbaa !64
  br label %109

109:                                              ; preds = %100
  %110 = load ptr, ptr %11, align 8, !tbaa !62
  %111 = load ptr, ptr %9, align 8, !tbaa !9
  %112 = getelementptr inbounds nuw %struct._zval_struct, ptr %111, i32 0, i32 0
  store ptr %110, ptr %112, align 8, !tbaa !11
  %113 = load i32, ptr %12, align 4, !tbaa !64
  %114 = load ptr, ptr %9, align 8, !tbaa !9
  %115 = getelementptr inbounds nuw %struct._zval_struct, ptr %114, i32 0, i32 1
  store i32 %113, ptr %115, align 8, !tbaa !11
  br label %116

116:                                              ; preds = %109
  br label %117

117:                                              ; preds = %116
  call void @llvm.lifetime.end.p0(i64 4, ptr %12) #14
  call void @llvm.lifetime.end.p0(i64 8, ptr %11) #14
  call void @llvm.lifetime.end.p0(i64 8, ptr %10) #14
  call void @llvm.lifetime.end.p0(i64 8, ptr %9) #14
  br label %118

118:                                              ; preds = %117
  br label %119

119:                                              ; preds = %118
  call void @llvm.lifetime.end.p0(i64 8, ptr %8) #14
  br label %120

120:                                              ; preds = %119
  br label %121

121:                                              ; preds = %120
  store i32 1, ptr %7, align 4
  br label %124

122:                                              ; No predecessors!
  br label %123

123:                                              ; preds = %122
  store i32 0, ptr %7, align 4
  br label %124

124:                                              ; preds = %123, %121, %55, %30
  call void @llvm.lifetime.end.p0(i64 8, ptr %6) #14
  call void @llvm.lifetime.end.p0(i64 8, ptr %5) #14
  %125 = load i32, ptr %7, align 4
  switch i32 %125, label %127 [
    i32 0, label %126
    i32 1, label %126
  ]

126:                                              ; preds = %124, %124
  ret void

127:                                              ; preds = %124
  unreachable
}