; Function Attrs: nounwind uwtable
define hidden void @zim_SplDoublyLinkedList_top(ptr noundef readonly captures(none) %0, ptr noundef writeonly captures(none) %1) #0 {
  %3 = getelementptr inbounds nuw i8, ptr %0, i64 44
  %4 = load i32, ptr %3, align 4, !tbaa !4
  %.not = icmp eq i32 %4, 0
  br i1 %.not, label %.critedge, label %5, !prof !59

5:                                                ; preds = %2
  tail call void @zend_wrong_parameters_none_error() #13
  %6 = load ptr, ptr getelementptr inbounds nuw (i8, ptr @executor_globals, i64 960), align 8, !tbaa !7
  %7 = icmp ne ptr %6, null
  tail call void @llvm.assume(i1 %7)
  br label %45

.critedge:                                        ; preds = %2
  %8 = getelementptr inbounds nuw i8, ptr %0, i64 32
  %9 = load ptr, ptr %8, align 8, !tbaa !4
  %10 = getelementptr inbounds i8, ptr %9, i64 -72
  %11 = load ptr, ptr %10, align 8, !tbaa !43
  %12 = getelementptr i8, ptr %11, i64 8
  %.val = load ptr, ptr %12, align 8, !tbaa !51
  %13 = icmp eq ptr %.val, null
  %14 = getelementptr inbounds nuw i8, ptr %.val, i64 16
  br i1 %13, label %19, label %15

15:                                               ; preds = %.critedge
  %16 = getelementptr inbounds nuw i8, ptr %.val, i64 24
  %17 = load i8, ptr %16, align 8, !tbaa !4
  %18 = icmp eq i8 %17, 0
  br i1 %18, label %19, label %24

19:                                               ; preds = %15, %.critedge
  %20 = load ptr, ptr @spl_ce_RuntimeException, align 8, !tbaa !60
  %21 = tail call ptr @zend_throw_exception(ptr noundef %20, ptr noundef nonnull @.str.3, i64 noundef 0) #13
  %22 = load ptr, ptr getelementptr inbounds nuw (i8, ptr @executor_globals, i64 960), align 8, !tbaa !7
  %23 = icmp ne ptr %22, null
  tail call void @llvm.assume(i1 %23)
  br label %45

24:                                               ; preds = %15
  %25 = load i32, ptr %16, align 8
  %26 = and i32 %25, 65280
  %.not20 = icmp eq i32 %26, 0
  br i1 %.not20, label %40, label %27

27:                                               ; preds = %24
  %28 = and i32 %25, 255
  %29 = icmp eq i32 %28, 10
  br i1 %29, label %30, label %.sink.split, !prof !61

30:                                               ; preds = %27
  %31 = load ptr, ptr %14, align 8, !tbaa !4
  %32 = getelementptr inbounds nuw i8, ptr %31, i64 8
  %33 = getelementptr inbounds nuw i8, ptr %31, i64 16
  %34 = load i32, ptr %33, align 8
  %35 = and i32 %34, 65280
  %.not21 = icmp eq i32 %35, 0
  br i1 %.not21, label %40, label %.sink.split

.sink.split:                                      ; preds = %27, %30
  %.sink26 = phi i32 [ %34, %30 ], [ %25, %27 ]
  %.sink.in = phi ptr [ %32, %30 ], [ %14, %27 ]
  %36 = and i32 %.sink26, 65280
  %37 = icmp ne i32 %36, 0
  tail call void @llvm.assume(i1 %37)
  %.sink = load ptr, ptr %.sink.in, align 8, !tbaa !4
  %38 = load i32, ptr %.sink, align 4, !tbaa !56
  %39 = add i32 %38, 1
  store i32 %39, ptr %.sink, align 4, !tbaa !56
  br label %40

40:                                               ; preds = %.sink.split, %24, %30
  %.0 = phi ptr [ %32, %30 ], [ %14, %24 ], [ %.sink.in, %.sink.split ]
  %41 = load ptr, ptr %.0, align 8, !tbaa !4
  %42 = getelementptr inbounds nuw i8, ptr %.0, i64 8
  %43 = load i32, ptr %42, align 8, !tbaa !4
  store ptr %41, ptr %1, align 8, !tbaa !4
  %44 = getelementptr inbounds nuw i8, ptr %1, i64 8
  store i32 %43, ptr %44, align 8, !tbaa !4
  br label %45

45:                                               ; preds = %40, %19, %5
  ret void
}